; Function Attrs: nounwind uwtable
define i32 @Dar2_LibBuildBest_rec(ptr noundef %0, ptr noundef readonly captures(none) %1) local_unnamed_addr #0 {
  %3 = load ptr, ptr @s_DarLib, align 8
  %4 = getelementptr inbounds nuw i8, ptr %3, i64 16096
  %5 = load ptr, ptr %4, align 8
  %6 = load i64, ptr %1, align 4
  %7 = lshr i64 %6, 36
  %8 = getelementptr inbounds nuw %struct.Dar_LibDat_t_, ptr %5, i64 %7
  %9 = load i32, ptr %8, align 8
  %10 = icmp sgt i32 %9, -1
  br i1 %10, label %80, label %11

11:                                               ; preds = %2
  %12 = and i64 %6, 65535
  %.val24 = load ptr, ptr %3, align 8
  %13 = getelementptr inbounds nuw %struct.Dar_LibObj_t_, ptr %.val24, i64 %12
  %14 = tail call i32 @Dar2_LibBuildBest_rec(ptr noundef %0, ptr noundef %13)
  %15 = load ptr, ptr @s_DarLib, align 8
  %16 = load i64, ptr %1, align 4
  %17 = lshr i64 %16, 16
  %.val = load ptr, ptr %15, align 8
  %18 = and i64 %17, 65535
  %19 = getelementptr inbounds nuw %struct.Dar_LibObj_t_, ptr %.val, i64 %18
  %20 = tail call i32 @Dar2_LibBuildBest_rec(ptr noundef %0, ptr noundef %19)
  %21 = load i64, ptr %1, align 4
  %22 = lshr i64 %21, 32
  %23 = trunc nuw i64 %22 to i32
  %24 = and i32 %23, 1
  %25 = xor i32 %24, %14
  %26 = lshr i64 %21, 33
  %27 = trunc nuw nsw i64 %26 to i32
  %28 = and i32 %27, 1
  %29 = xor i32 %28, %20
  %30 = tail call i32 @Gia_ManHashAnd(ptr noundef %0, i32 noundef %25, i32 noundef %29) #20
  store i32 %30, ptr %8, align 8
  %31 = ashr i32 %30, 1
  %32 = getelementptr i8, ptr %0, i64 32
  %.val25 = load ptr, ptr %32, align 8
  %33 = sext i32 %31 to i64
  %34 = getelementptr inbounds %struct.Gia_Obj_t_, ptr %.val25, i64 %33
  %.val26 = load i64, ptr %34, align 4
  %35 = and i64 %.val26, 2147483648
  %.not.i = icmp ne i64 %35, 0
  %36 = and i64 %.val26, 536870911
  %37 = icmp eq i64 %36, 536870911
  %narrow.i.not = or i1 %.not.i, %37
  br i1 %narrow.i.not, label %78, label %38

38:                                               ; preds = %11
  %39 = sub nsw i64 0, %36
  %40 = getelementptr inbounds %struct.Gia_Obj_t_, ptr %34, i64 %39
  %41 = getelementptr i8, ptr %0, i64 160
  %.val8.i = load ptr, ptr %41, align 8
  %42 = ptrtoint ptr %40 to i64
  %43 = ptrtoint ptr %.val25 to i64
  %44 = sub i64 %42, %43
  %45 = sdiv exact i64 %44, 12
  %46 = trunc i64 %45 to i32
  %47 = add nsw i32 %46, 1
  tail call fastcc void @Vec_IntFillExtra(ptr noundef %.val8.i, i32 noundef %47)
  %48 = getelementptr i8, ptr %.val8.i, i64 8
  %.val.i.i.i.i = load ptr, ptr %48, align 8
  %sext.i.i = shl i64 %45, 32
  %49 = ashr exact i64 %sext.i.i, 30
  %50 = getelementptr inbounds i8, ptr %.val.i.i.i.i, i64 %49
  %51 = load i32, ptr %50, align 4
  %52 = load i64, ptr %34, align 4
  %53 = lshr i64 %52, 32
  %54 = and i64 %53, 536870911
  %55 = sub nsw i64 0, %54
  %56 = getelementptr inbounds %struct.Gia_Obj_t_, ptr %34, i64 %55
  %.val.i = load ptr, ptr %32, align 8
  %.val6.i = load ptr, ptr %41, align 8
  %57 = ptrtoint ptr %56 to i64
  %58 = ptrtoint ptr %.val.i to i64
  %59 = sub i64 %57, %58
  %60 = sdiv exact i64 %59, 12
  %61 = trunc i64 %60 to i32
  %62 = add nsw i32 %61, 1
  tail call fastcc void @Vec_IntFillExtra(ptr noundef %.val6.i, i32 noundef %62)
  %63 = getelementptr i8, ptr %.val6.i, i64 8
  %.val.i.i.i11.i = load ptr, ptr %63, align 8
  %sext.i12.i = shl i64 %60, 32
  %64 = ashr exact i64 %sext.i12.i, 30
  %65 = getelementptr inbounds i8, ptr %.val.i.i.i11.i, i64 %64
  %66 = load i32, ptr %65, align 4
  %67 = tail call noundef i32 @llvm.smax.i32(i32 %51, i32 %66)
  %68 = add nsw i32 %67, 1
  %.val9.i = load ptr, ptr %32, align 8
  %.val10.i = load ptr, ptr %41, align 8
  %69 = ptrtoint ptr %34 to i64
  %70 = ptrtoint ptr %.val9.i to i64
  %71 = sub i64 %69, %70
  %72 = sdiv exact i64 %71, 12
  %73 = trunc i64 %72 to i32
  %74 = add nsw i32 %73, 1
  tail call fastcc void @Vec_IntFillExtra(ptr noundef %.val10.i, i32 noundef %74)
  %75 = getelementptr i8, ptr %.val10.i, i64 8
  %.val.i.i.i13.i = load ptr, ptr %75, align 8
  %sext.i14.i = shl i64 %72, 32
  %76 = ashr exact i64 %sext.i14.i, 30
  %77 = getelementptr inbounds i8, ptr %.val.i.i.i13.i, i64 %76
  store i32 %68, ptr %77, align 4
  br label %78

78:                                               ; preds = %38, %11
  tail call void @Gia_ObjSetPhase(ptr noundef nonnull %0, ptr noundef nonnull %34) #20
  %79 = load i32, ptr %8, align 8
  br label %80

80:                                               ; preds = %2, %78
  %.0 = phi i32 [ %79, %78 ], [ %9, %2 ]
  ret i32 %.0
}